target datalayout = "e-m:e-p270:32:32-p271:32:32-p272:64:64-i64:64-i128:128-f80:128-n8:16:32:64-S128"
target triple = "x86_64-pc-linux-gnu"

%"struct.base::Time::Exploded" = type { i32, i32, i32, i32, i32, i32, i32, i32 }

; Function Attrs: inlinehint mustprogress nounwind uwtable
define linkonce_odr noundef zeroext i1 @_ZN4base11is_in_rangeEiii(i32 noundef %0, i32 noundef %1, i32 noundef %2) #6 comdat {
  %4 = alloca i32, align 4
  %5 = alloca i32, align 4
  %6 = alloca i32, align 4
  store i32 %0, ptr %4, align 4, !tbaa !72
  store i32 %1, ptr %5, align 4, !tbaa !72
  store i32 %2, ptr %6, align 4, !tbaa !72
  %7 = load i32, ptr %5, align 4, !tbaa !72
  %8 = load i32, ptr %4, align 4, !tbaa !72
  %9 = icmp sle i32 %7, %8
  br i1 %9, label %10, label %14

10:                                               ; preds = %3
  %11 = load i32, ptr %4, align 4, !tbaa !72
  %12 = load i32, ptr %6, align 4, !tbaa !72
  %13 = icmp sle i32 %11, %12
  br label %14

14:                                               ; preds = %10, %3
  %15 = phi i1 [ false, %3 ], [ %13, %10 ]
  ret i1 %15
}

; Function Attrs: mustprogress uwtable
define noundef zeroext i1 @_ZNK4base4Time8Exploded14HasValidValuesEv(ptr noundef nonnull align 4 dereferenceable(32) %0) #0 align 2 {
  %2 = alloca ptr, align 8
  store ptr %0, ptr %2, align 8, !tbaa !42
  %3 = load ptr, ptr %2, align 8
  %4 = getelementptr inbounds nuw %"struct.base::Time::Exploded", ptr %3, i32 0, i32 1
  %5 = load i32, ptr %4, align 4, !tbaa !51
  %6 = call noundef zeroext i1 @_ZN4base11is_in_rangeEiii(i32 noundef %5, i32 noundef 1, i32 noundef 12)
  br i1 %6, label %7, label %31

7:                                                ; preds = %1
  %8 = getelementptr inbounds nuw %"struct.base::Time::Exploded", ptr %3, i32 0, i32 2
  %9 = load i32, ptr %8, align 4, !tbaa !71
  %10 = call noundef zeroext i1 @_ZN4base11is_in_rangeEiii(i32 noundef %9, i32 noundef 0, i32 noundef 6)
  br i1 %10, label %11, label %31

11:                                               ; preds = %7
  %12 = getelementptr inbounds nuw %"struct.base::Time::Exploded", ptr %3, i32 0, i32 3
  %13 = load i32, ptr %12, align 4, !tbaa !52
  %14 = call noundef zeroext i1 @_ZN4base11is_in_rangeEiii(i32 noundef %13, i32 noundef 1, i32 noundef 31)
  br i1 %14, label %15, label %31

15:                                               ; preds = %11
  %16 = getelementptr inbounds nuw %"struct.base::Time::Exploded", ptr %3, i32 0, i32 4
  %17 = load i32, ptr %16, align 4, !tbaa !36
  %18 = call noundef zeroext i1 @_ZN4base11is_in_rangeEiii(i32 noundef %17, i32 noundef 0, i32 noundef 23)
  br i1 %18, label %19, label %31

19:                                               ; preds = %15
  %20 = getelementptr inbounds nuw %"struct.base::Time::Exploded", ptr %3, i32 0, i32 5
  %21 = load i32, ptr %20, align 4, !tbaa !39
  %22 = call noundef zeroext i1 @_ZN4base11is_in_rangeEiii(i32 noundef %21, i32 noundef 0, i32 noundef 59)
  br i1 %22, label %23, label %31

23:                                               ; preds = %19
  %24 = getelementptr inbounds nuw %"struct.base::Time::Exploded", ptr %3, i32 0, i32 6
  %25 = load i32, ptr %24, align 4, !tbaa !40
  %26 = call noundef zeroext i1 @_ZN4base11is_in_rangeEiii(i32 noundef %25, i32 noundef 0, i32 noundef 60)
  br i1 %26, label %27, label %31

27:                                               ; preds = %23
  %28 = getelementptr inbounds nuw %"struct.base::Time::Exploded", ptr %3, i32 0, i32 7
  %29 = load i32, ptr %28, align 4, !tbaa !41
  %30 = call noundef zeroext i1 @_ZN4base11is_in_rangeEiii(i32 noundef %29, i32 noundef 0, i32 noundef 999)
  br label %31

31:                                               ; preds = %27, %23, %19, %15, %11, %7, %1
  %32 = phi i1 [ false, %23 ], [ false, %19 ], [ false, %15 ], [ false, %11 ], [ false, %7 ], [ false, %1 ], [ %30, %27 ]
  ret i1 %32
}