; Function Attrs: mustprogress nofree norecurse nosync nounwind willreturn memory(argmem: read) uwtable
define noundef zeroext i1 @_ZNK4base4Time8Exploded14HasValidValuesEv(ptr noundef nonnull readonly align 4 captures(none) dereferenceable(32) %0) local_unnamed_addr #1 align 2 {
  %2 = getelementptr inbounds nuw i8, ptr %0, i64 4
  %3 = load i32, ptr %2, align 4, !tbaa !18
  %4 = add i32 %3, -1
  %5 = icmp ult i32 %4, 12
  %6 = getelementptr inbounds nuw i8, ptr %0, i64 8
  %7 = load i32, ptr %6, align 4
  %8 = icmp ult i32 %7, 7
  %or.cond = select i1 %5, i1 %8, i1 false
  br i1 %or.cond, label %9, label %27

9:                                                ; preds = %1
  %10 = getelementptr inbounds nuw i8, ptr %0, i64 12
  %11 = load i32, ptr %10, align 4, !tbaa !19
  %12 = add i32 %11, -1
  %13 = icmp ult i32 %12, 31
  %14 = getelementptr inbounds nuw i8, ptr %0, i64 16
  %15 = load i32, ptr %14, align 4
  %16 = icmp ult i32 %15, 24
  %or.cond5 = select i1 %13, i1 %16, i1 false
  %17 = getelementptr inbounds nuw i8, ptr %0, i64 20
  %18 = load i32, ptr %17, align 4
  %19 = icmp ult i32 %18, 60
  %or.cond8 = select i1 %or.cond5, i1 %19, i1 false
  %20 = getelementptr inbounds nuw i8, ptr %0, i64 24
  %21 = load i32, ptr %20, align 4
  %22 = icmp ult i32 %21, 61
  %or.cond11 = select i1 %or.cond8, i1 %22, i1 false
  br i1 %or.cond11, label %23, label %27

23:                                               ; preds = %9
  %24 = getelementptr inbounds nuw i8, ptr %0, i64 28
  %25 = load i32, ptr %24, align 4, !tbaa !23
  %26 = icmp ult i32 %25, 1000
  br label %27

27:                                               ; preds = %23, %9, %1
  %28 = phi i1 [ false, %9 ], [ false, %1 ], [ %26, %23 ]
  ret i1 %28
}